target datalayout = "e-m:e-p270:32:32-p271:32:32-p272:64:64-i64:64-i128:128-f80:128-n8:16:32:64-S128"
target triple = "x86_64-pc-linux-gnu"

%struct.keytype_desc_st = type { ptr, ptr, ptr, i32, i32, ptr, ptr, ptr, ptr, ptr, ptr, ptr, ptr }
%struct.der2key_ctx_st = type { ptr, [256 x i8], ptr, i32, i8 }

; Function Attrs: nounwind uwtable
define internal i32 @ec_check(ptr noundef %0, ptr noundef %1) #0 {
  %3 = alloca ptr, align 8
  %4 = alloca ptr, align 8
  %5 = alloca i32, align 4
  %6 = alloca i32, align 4
  store ptr %0, ptr %3, align 8, !tbaa !3
  store ptr %1, ptr %4, align 8, !tbaa !7
  call void @llvm.lifetime.start.p0(i64 4, ptr %5) #6
  store i32 0, ptr %5, align 4, !tbaa !9
  call void @llvm.lifetime.start.p0(i64 4, ptr %6) #6
  %7 = load ptr, ptr %3, align 8, !tbaa !3
  %8 = call i32 @EC_KEY_get_flags(ptr noundef %7)
  %9 = and i32 %8, 4
  %10 = icmp ne i32 %9, 0
  %11 = zext i1 %10 to i32
  store i32 %11, ptr %6, align 4, !tbaa !9
  %12 = load i32, ptr %6, align 4, !tbaa !9
  %13 = icmp ne i32 %12, 0
  br i1 %13, label %14, label %31

14:                                               ; preds = %2
  %15 = load ptr, ptr %4, align 8, !tbaa !7
  %16 = getelementptr inbounds nuw %struct.der2key_ctx_st, ptr %15, i32 0, i32 2
  %17 = load ptr, ptr %16, align 8, !tbaa !21
  %18 = getelementptr inbounds nuw %struct.keytype_desc_st, ptr %17, i32 0, i32 3
  %19 = load i32, ptr %18, align 8, !tbaa !50
  %20 = icmp eq i32 %19, 1172
  br i1 %20, label %28, label %21

21:                                               ; preds = %14
  %22 = load ptr, ptr %4, align 8, !tbaa !7
  %23 = getelementptr inbounds nuw %struct.der2key_ctx_st, ptr %22, i32 0, i32 2
  %24 = load ptr, ptr %23, align 8, !tbaa !21
  %25 = getelementptr inbounds nuw %struct.keytype_desc_st, ptr %24, i32 0, i32 3
  %26 = load i32, ptr %25, align 8, !tbaa !50
  %27 = icmp eq i32 %26, 408
  br label %28

28:                                               ; preds = %21, %14
  %29 = phi i1 [ true, %14 ], [ %27, %21 ]
  %30 = zext i1 %29 to i32
  store i32 %30, ptr %5, align 4, !tbaa !9
  br label %39

31:                                               ; preds = %2
  %32 = load ptr, ptr %4, align 8, !tbaa !7
  %33 = getelementptr inbounds nuw %struct.der2key_ctx_st, ptr %32, i32 0, i32 2
  %34 = load ptr, ptr %33, align 8, !tbaa !21
  %35 = getelementptr inbounds nuw %struct.keytype_desc_st, ptr %34, i32 0, i32 3
  %36 = load i32, ptr %35, align 8, !tbaa !50
  %37 = icmp ne i32 %36, 1172
  %38 = zext i1 %37 to i32
  store i32 %38, ptr %5, align 4, !tbaa !9
  br label %39

39:                                               ; preds = %31, %28
  %40 = load i32, ptr %5, align 4, !tbaa !9
  call void @llvm.lifetime.end.p0(i64 4, ptr %6) #6
  call void @llvm.lifetime.end.p0(i64 4, ptr %5) #6
  ret i32 %40
}