; Function Attrs: nounwind uwtable
define internal range(i32 0, 2) i32 @ec_check(ptr noundef %0, ptr noundef readonly captures(none) %1) #0 {
  %3 = tail call i32 @EC_KEY_get_flags(ptr noundef %0) #7
  %4 = and i32 %3, 4
  %.not = icmp eq i32 %4, 0
  %5 = getelementptr inbounds nuw i8, ptr %1, i64 264
  %6 = load ptr, ptr %5, align 8, !tbaa !11
  %7 = getelementptr inbounds nuw i8, ptr %6, i64 24
  %8 = load i32, ptr %7, align 8, !tbaa !41
  br i1 %.not, label %12, label %9

9:                                                ; preds = %2
  %10 = icmp eq i32 %8, 1172
  %11 = icmp eq i32 %8, 408
  %narrow = or i1 %10, %11
  br label %14

12:                                               ; preds = %2
  %13 = icmp ne i32 %8, 1172
  br label %14

14:                                               ; preds = %12, %9
  %.0.in = phi i1 [ %narrow, %9 ], [ %13, %12 ]
  %.0 = zext i1 %.0.in to i32
  ret i32 %.0
}